target datalayout = "e-m:e-p270:32:32-p271:32:32-p272:64:64-i64:64-i128:128-f80:128-n8:16:32:64-S128"
target triple = "x86_64-unknown-linux-gnu"

%"class.ODDLParser::OpenDDLExport" = type { ptr }

; Function Attrs: mustprogress uwtable
define hidden void @_ZN10ODDLParser13OpenDDLExportC2EPNS_12IOStreamBaseE(ptr noundef nonnull align 8 dereferenceable(8) %this, ptr noundef %stream) unnamed_addr #0 align 2 personality ptr @__gxx_personality_v0 {
entry:
  %this.addr = alloca ptr, align 8
  %stream.addr = alloca ptr, align 8
  %exn.slot = alloca ptr, align 8
  %ehselector.slot = alloca i32, align 4
  store ptr %this, ptr %this.addr, align 8
  store ptr %stream, ptr %stream.addr, align 8
  %this1 = load ptr, ptr %this.addr, align 8
  %m_stream = getelementptr inbounds %"class.ODDLParser::OpenDDLExport", ptr %this1, i32 0, i32 0
  %0 = load ptr, ptr %stream.addr, align 8
  store ptr %0, ptr %m_stream, align 8
  %m_stream2 = getelementptr inbounds %"class.ODDLParser::OpenDDLExport", ptr %this1, i32 0, i32 0
  %1 = load ptr, ptr %m_stream2, align 8
  %cmp = icmp eq ptr null, %1
  br i1 %cmp, label %if.then, label %if.end

if.then:                                          ; preds = %entry
  %call = call noalias noundef nonnull ptr @_Znwm(i64 noundef 24) #9
  invoke void @_ZN10ODDLParser12IOStreamBaseC1EPNS_19StreamFormatterBaseE(ptr noundef nonnull align 8 dereferenceable(24) %call, ptr noundef null)
          to label %invoke.cont unwind label %lpad

invoke.cont:                                      ; preds = %if.then
  %m_stream3 = getelementptr inbounds %"class.ODDLParser::OpenDDLExport", ptr %this1, i32 0, i32 0
  store ptr %call, ptr %m_stream3, align 8
  br label %if.end

lpad:                                             ; preds = %if.then
  %2 = landingpad { ptr, i32 }
          cleanup
  %3 = extractvalue { ptr, i32 } %2, 0
  store ptr %3, ptr %exn.slot, align 8
  %4 = extractvalue { ptr, i32 } %2, 1
  store i32 %4, ptr %ehselector.slot, align 4
  call void @_ZdlPv(ptr noundef %call) #10
  br label %eh.resume

if.end:                                           ; preds = %invoke.cont, %entry
  ret void

eh.resume:                                        ; preds = %lpad
  %exn = load ptr, ptr %exn.slot, align 8
  %sel = load i32, ptr %ehselector.slot, align 4
  %lpad.val = insertvalue { ptr, i32 } poison, ptr %exn, 0
  %lpad.val4 = insertvalue { ptr, i32 } %lpad.val, i32 %sel, 1
  resume { ptr, i32 } %lpad.val4
}