; Function Attrs: mustprogress uwtable
define hidden void @_ZN10ODDLParser13OpenDDLExportC2EPNS_12IOStreamBaseE(ptr noundef nonnull writeonly align 8 captures(none) dereferenceable(8) initializes((0, 8)) %this, ptr noundef %stream) unnamed_addr #0 align 2 personality ptr @__gxx_personality_v0 {
entry:
  store ptr %stream, ptr %this, align 8
  %cmp = icmp eq ptr %stream, null
  br i1 %cmp, label %if.then, label %if.end

if.then:                                          ; preds = %entry
  %call = tail call noalias noundef nonnull dereferenceable(24) ptr @_Znwm(i64 noundef 24) #12
  invoke void @_ZN10ODDLParser12IOStreamBaseC1EPNS_19StreamFormatterBaseE(ptr noundef nonnull align 8 dereferenceable(24) %call, ptr noundef null)
          to label %invoke.cont unwind label %lpad

invoke.cont:                                      ; preds = %if.then
  store ptr %call, ptr %this, align 8
  br label %if.end

lpad:                                             ; preds = %if.then
  %0 = landingpad { ptr, i32 }
          cleanup
  tail call void @_ZdlPv(ptr noundef nonnull %call) #13
  resume { ptr, i32 } %0

if.end:                                           ; preds = %invoke.cont, %entry
  ret void
}